(dp0
I1074567580030745344
I4248409732525561518
sI-3649691481898801280
I934102663078610704
sI5921548436804065794
I7297201166445557344
sI3656331141707221763
I-3799628963832280720
sI-6153658539646157308
I-4395332892679669748
sI96233115448437718
I4391898099218293838
sI2238010919854622343
I8995536237846315208
sI5167700915372961288
I7752759729809648535
sI3506989962134209676
I-910242901185576041
sI6223496855655042
I-3912883373198178301
sI-6864916705659781961
I8016613010881879552
sI-1454955781187336867
I6541127428161724364
sI-5029718995009812711
I2515817015217418786
sI7383079740129644830
I4385565197058507654
sI-4223031200866199137
I-4938947931382820567
sI-3236103087898984667
I8970120532578726711
sI7668954281301610407
I1300651405996573832
sI1148257442099186986
I-3640631491974368233
sI6911830268282035271
I-1319325260649236727
sI5942288483821931436
I7128977368614913331
sI7414325533724676525
I-787560996376811759
sI-4846918231193601617
I-3346939784309702961
sI7724551193329773236
I6821877226586353131
sI-3287546653708434889
I7903119800422137559
sI-3820761329542444488
I1418838942768389238
sI911957194708495161
I-2706972844813806767
sI7636735806734149818
I-2578906534172121139
sI1200581789105096509
I-5198574622004115899
sI3718702713269200446
I-1937057073883606312
sI5125713612786128736
I-911929089402439222
sI2321026529217604418
I846188032348155709
sI5982911047290873411
I938820472538308511
sI-9140931606350444732
I-6205640865346179273
sI-8701287178416494649
I2580840059268570131
sI7755175254880997579
I1183105373812447820
sI1399970941047277905
I-3620307773512634098
sI-877304126966480046
I9178093122431891615
sI2329001709182777043
I2050805873251691620
sI-3930889888763219498
I6638536149180759552
sI-27334261643358760
I-7525599251853842129
sI3419526564242604103
I-4721078637609779242
sI6917543774241122407
I4076095678730022540
sI-3325004576782927267
I-2042028224623798044
sI8417294399886540254
I1530777380263796095
sI6324921943063970783
I-3977565762709948802
sI-5870382550558740128
I3187166550101123489
sI675017981734995173
I948551426158257979
sI-531705029119504538
I7743185405760969106
sI353893206651501287
I5607388449542765958
sI-2693592089550150039
I-7787199329694392519
sI-5625719006798254486
I-6731953588372025949
sI2077517877618445675
I8179469985797683976
sI-1183374977251745682
I7940020675182729784
sI6624545256496467823
I-4182569876579593774
sI4041350313972659318
I5215792658663830945
sI3935162129869534657
I6669399482232720051
sI-5480767487161883268
I-2096901986036601296
sI4790034276483747838
I3514709257734208143
s.